target datalayout = "e-m:e-p270:32:32-p271:32:32-p272:64:64-i64:64-i128:128-f80:128-n8:16:32:64-S128"
target triple = "x86_64-pc-linux-gnu"

%struct.ctlog_store_st = type { ptr, ptr, ptr }
%struct.ctlog_st = type { ptr, ptr, ptr, [32 x i8], ptr }
%struct.ctlog_store_load_ctx_st = type { ptr, ptr, i64 }

@.str = private unnamed_addr constant [30 x i8] c"../openssl/crypto/ct/ct_log.c\00", align 1
@__func__.ctlog_store_load_log = private unnamed_addr constant [21 x i8] c"ctlog_store_load_log\00", align 1
@.str.4 = private unnamed_addr constant [12 x i8] c"description\00", align 1
@__func__.ctlog_new_from_conf = private unnamed_addr constant [20 x i8] c"ctlog_new_from_conf\00", align 1
@.str.5 = private unnamed_addr constant [4 x i8] c"key\00", align 1

; Function Attrs: nounwind uwtable
define void @CTLOG_free(ptr noundef %0) #0 {
  %2 = alloca ptr, align 8
  store ptr %0, ptr %2, align 8, !tbaa !19
  %3 = load ptr, ptr %2, align 8, !tbaa !19
  %4 = icmp ne ptr %3, null
  br i1 %4, label %5, label %16

5:                                                ; preds = %1
  %6 = load ptr, ptr %2, align 8, !tbaa !19
  %7 = getelementptr inbounds nuw %struct.ctlog_st, ptr %6, i32 0, i32 2
  %8 = load ptr, ptr %7, align 8, !tbaa !21
  call void @CRYPTO_free(ptr noundef %8, ptr noundef @.str, i32 noundef 295)
  %9 = load ptr, ptr %2, align 8, !tbaa !19
  %10 = getelementptr inbounds nuw %struct.ctlog_st, ptr %9, i32 0, i32 4
  %11 = load ptr, ptr %10, align 8, !tbaa !24
  call void @EVP_PKEY_free(ptr noundef %11)
  %12 = load ptr, ptr %2, align 8, !tbaa !19
  %13 = getelementptr inbounds nuw %struct.ctlog_st, ptr %12, i32 0, i32 1
  %14 = load ptr, ptr %13, align 8, !tbaa !25
  call void @CRYPTO_free(ptr noundef %14, ptr noundef @.str, i32 noundef 297)
  %15 = load ptr, ptr %2, align 8, !tbaa !19
  call void @CRYPTO_free(ptr noundef %15, ptr noundef @.str, i32 noundef 298)
  br label %16

16:                                               ; preds = %5, %1
  ret void
}

; Function Attrs: inlinehint nounwind uwtable
define internal ptr @ossl_check_CTLOG_type(ptr noundef %0) #3 {
  %2 = alloca ptr, align 8
  store ptr %0, ptr %2, align 8, !tbaa !19
  %3 = load ptr, ptr %2, align 8, !tbaa !19
  ret ptr %3
}

; Function Attrs: inlinehint nounwind uwtable
define internal ptr @ossl_check_CTLOG_sk_type(ptr noundef %0) #3 {
  %2 = alloca ptr, align 8
  store ptr %0, ptr %2, align 8, !tbaa !17
  %3 = load ptr, ptr %2, align 8, !tbaa !17
  ret ptr %3
}

; Function Attrs: nounwind uwtable
define internal i32 @ctlog_new_from_conf(ptr noundef %0, ptr noundef %1, ptr noundef %2, ptr noundef %3) #0 {
  %5 = alloca i32, align 4
  %6 = alloca ptr, align 8
  %7 = alloca ptr, align 8
  %8 = alloca ptr, align 8
  %9 = alloca ptr, align 8
  %10 = alloca ptr, align 8
  %11 = alloca ptr, align 8
  %12 = alloca i32, align 4
  store ptr %0, ptr %6, align 8, !tbaa !10
  store ptr %1, ptr %7, align 8, !tbaa !47
  store ptr %2, ptr %8, align 8, !tbaa !49
  store ptr %3, ptr %9, align 8, !tbaa !8
  call void @llvm.lifetime.start.p0(i64 8, ptr %10) #5
  %13 = load ptr, ptr %8, align 8, !tbaa !49
  %14 = load ptr, ptr %9, align 8, !tbaa !8
  %15 = call ptr @NCONF_get_string(ptr noundef %13, ptr noundef %14, ptr noundef @.str.4)
  store ptr %15, ptr %10, align 8, !tbaa !8
  call void @llvm.lifetime.start.p0(i64 8, ptr %11) #5
  %16 = load ptr, ptr %10, align 8, !tbaa !8
  %17 = icmp eq ptr %16, null
  br i1 %17, label %18, label %19

18:                                               ; preds = %4
  call void @ERR_new()
  call void @ERR_set_debug(ptr noundef @.str, i32 noundef 147, ptr noundef @__func__.ctlog_new_from_conf)
  call void (i32, i32, ptr, ...) @ERR_set_error(i32 noundef 50, i32 noundef 111, ptr noundef null)
  store i32 0, ptr %5, align 4
  store i32 1, ptr %12, align 4
  br label %37

19:                                               ; preds = %4
  %20 = load ptr, ptr %8, align 8, !tbaa !49
  %21 = load ptr, ptr %9, align 8, !tbaa !8
  %22 = call ptr @NCONF_get_string(ptr noundef %20, ptr noundef %21, ptr noundef @.str.5)
  store ptr %22, ptr %11, align 8, !tbaa !8
  %23 = load ptr, ptr %11, align 8, !tbaa !8
  %24 = icmp eq ptr %23, null
  br i1 %24, label %25, label %26

25:                                               ; preds = %19
  call void @ERR_new()
  call void @ERR_set_debug(ptr noundef @.str, i32 noundef 153, ptr noundef @__func__.ctlog_new_from_conf)
  call void (i32, i32, ptr, ...) @ERR_set_error(i32 noundef 50, i32 noundef 112, ptr noundef null)
  store i32 0, ptr %5, align 4
  store i32 1, ptr %12, align 4
  br label %37

26:                                               ; preds = %19
  %27 = load ptr, ptr %7, align 8, !tbaa !47
  %28 = load ptr, ptr %11, align 8, !tbaa !8
  %29 = load ptr, ptr %10, align 8, !tbaa !8
  %30 = load ptr, ptr %6, align 8, !tbaa !10
  %31 = getelementptr inbounds nuw %struct.ctlog_store_st, ptr %30, i32 0, i32 0
  %32 = load ptr, ptr %31, align 8, !tbaa !12
  %33 = load ptr, ptr %6, align 8, !tbaa !10
  %34 = getelementptr inbounds nuw %struct.ctlog_store_st, ptr %33, i32 0, i32 1
  %35 = load ptr, ptr %34, align 8, !tbaa !15
  %36 = call i32 @CTLOG_new_from_base64_ex(ptr noundef %27, ptr noundef %28, ptr noundef %29, ptr noundef %32, ptr noundef %35)
  store i32 %36, ptr %5, align 4
  store i32 1, ptr %12, align 4
  br label %37

37:                                               ; preds = %26, %25, %18
  call void @llvm.lifetime.end.p0(i64 8, ptr %11) #5
  call void @llvm.lifetime.end.p0(i64 8, ptr %10) #5
  %38 = load i32, ptr %5, align 4
  ret i32 %38
}

; Function Attrs: nounwind uwtable
define internal i32 @ctlog_store_load_log(ptr noundef %0, i32 noundef %1, ptr noundef %2) #0 {
  %4 = alloca i32, align 4
  %5 = alloca ptr, align 8
  %6 = alloca i32, align 4
  %7 = alloca ptr, align 8
  %8 = alloca ptr, align 8
  %9 = alloca ptr, align 8
  %10 = alloca ptr, align 8
  %11 = alloca i32, align 4
  %12 = alloca i32, align 4
  store ptr %0, ptr %5, align 8, !tbaa !8
  store i32 %1, ptr %6, align 4, !tbaa !26
  store ptr %2, ptr %7, align 8, !tbaa !18
  call void @llvm.lifetime.start.p0(i64 8, ptr %8) #5
  %13 = load ptr, ptr %7, align 8, !tbaa !18
  store ptr %13, ptr %8, align 8, !tbaa !28
  call void @llvm.lifetime.start.p0(i64 8, ptr %9) #5
  store ptr null, ptr %9, align 8, !tbaa !19
  call void @llvm.lifetime.start.p0(i64 8, ptr %10) #5
  call void @llvm.lifetime.start.p0(i64 4, ptr %11) #5
  store i32 0, ptr %11, align 4, !tbaa !26
  %14 = load ptr, ptr %5, align 8, !tbaa !8
  %15 = icmp eq ptr %14, null
  br i1 %15, label %16, label %17

16:                                               ; preds = %3
  store i32 1, ptr %4, align 4
  store i32 1, ptr %12, align 4
  br label %61

17:                                               ; preds = %3
  %18 = load ptr, ptr %5, align 8, !tbaa !8
  %19 = load i32, ptr %6, align 4, !tbaa !26
  %20 = sext i32 %19 to i64
  %21 = call noalias ptr @CRYPTO_strndup(ptr noundef %18, i64 noundef %20, ptr noundef @.str, i32 noundef 190)
  store ptr %21, ptr %10, align 8, !tbaa !8
  %22 = load ptr, ptr %10, align 8, !tbaa !8
  %23 = icmp eq ptr %22, null
  br i1 %23, label %24, label %25

24:                                               ; preds = %17
  store i32 -1, ptr %4, align 4
  store i32 1, ptr %12, align 4
  br label %61

25:                                               ; preds = %17
  %26 = load ptr, ptr %8, align 8, !tbaa !28
  %27 = getelementptr inbounds nuw %struct.ctlog_store_load_ctx_st, ptr %26, i32 0, i32 0
  %28 = load ptr, ptr %27, align 8, !tbaa !30
  %29 = load ptr, ptr %8, align 8, !tbaa !28
  %30 = getelementptr inbounds nuw %struct.ctlog_store_load_ctx_st, ptr %29, i32 0, i32 1
  %31 = load ptr, ptr %30, align 8, !tbaa !34
  %32 = load ptr, ptr %10, align 8, !tbaa !8
  %33 = call i32 @ctlog_new_from_conf(ptr noundef %28, ptr noundef %9, ptr noundef %31, ptr noundef %32)
  store i32 %33, ptr %11, align 4, !tbaa !26
  %34 = load ptr, ptr %10, align 8, !tbaa !8
  call void @CRYPTO_free(ptr noundef %34, ptr noundef @.str, i32 noundef 195)
  %35 = load i32, ptr %11, align 4, !tbaa !26
  %36 = icmp slt i32 %35, 0
  br i1 %36, label %37, label %39

37:                                               ; preds = %25
  %38 = load i32, ptr %11, align 4, !tbaa !26
  store i32 %38, ptr %4, align 4
  store i32 1, ptr %12, align 4
  br label %61

39:                                               ; preds = %25
  %40 = load i32, ptr %11, align 4, !tbaa !26
  %41 = icmp eq i32 %40, 0
  br i1 %41, label %42, label %47

42:                                               ; preds = %39
  %43 = load ptr, ptr %8, align 8, !tbaa !28
  %44 = getelementptr inbounds nuw %struct.ctlog_store_load_ctx_st, ptr %43, i32 0, i32 2
  %45 = load i64, ptr %44, align 8, !tbaa !35
  %46 = add i64 %45, 1
  store i64 %46, ptr %44, align 8, !tbaa !35
  store i32 1, ptr %4, align 4
  store i32 1, ptr %12, align 4
  br label %61

47:                                               ; preds = %39
  %48 = load ptr, ptr %8, align 8, !tbaa !28
  %49 = getelementptr inbounds nuw %struct.ctlog_store_load_ctx_st, ptr %48, i32 0, i32 0
  %50 = load ptr, ptr %49, align 8, !tbaa !30
  %51 = getelementptr inbounds nuw %struct.ctlog_store_st, ptr %50, i32 0, i32 2
  %52 = load ptr, ptr %51, align 8, !tbaa !16
  %53 = call ptr @ossl_check_CTLOG_sk_type(ptr noundef %52)
  %54 = load ptr, ptr %9, align 8, !tbaa !19
  %55 = call ptr @ossl_check_CTLOG_type(ptr noundef %54)
  %56 = call i32 @OPENSSL_sk_push(ptr noundef %53, ptr noundef %55)
  %57 = icmp ne i32 %56, 0
  br i1 %57, label %60, label %58

58:                                               ; preds = %47
  %59 = load ptr, ptr %9, align 8, !tbaa !19
  call void @CTLOG_free(ptr noundef %59)
  call void @ERR_new()
  call void @ERR_set_debug(ptr noundef @.str, i32 noundef 209, ptr noundef @__func__.ctlog_store_load_log)
  call void (i32, i32, ptr, ...) @ERR_set_error(i32 noundef 50, i32 noundef 524303, ptr noundef null)
  store i32 -1, ptr %4, align 4
  store i32 1, ptr %12, align 4
  br label %61

60:                                               ; preds = %47
  store i32 1, ptr %4, align 4
  store i32 1, ptr %12, align 4
  br label %61

61:                                               ; preds = %60, %58, %42, %37, %24, %16
  call void @llvm.lifetime.end.p0(i64 4, ptr %11) #5
  call void @llvm.lifetime.end.p0(i64 8, ptr %10) #5
  call void @llvm.lifetime.end.p0(i64 8, ptr %9) #5
  call void @llvm.lifetime.end.p0(i64 8, ptr %8) #5
  %62 = load i32, ptr %4, align 4
  ret i32 %62
}