; Function Attrs: nounwind uwtable
define internal range(i32 -2147483648, 2) i32 @ctlog_store_load_log(ptr noundef %0, i32 noundef %1, ptr noundef captures(none) %2) #0 {
  %4 = alloca ptr, align 8
  call void @llvm.lifetime.start.p0(i64 8, ptr nonnull %4) #6
  store ptr null, ptr %4, align 8, !tbaa !25
  %5 = icmp eq ptr %0, null
  br i1 %5, label %45, label %6

6:                                                ; preds = %3
  %7 = sext i32 %1 to i64
  %8 = tail call noalias ptr @CRYPTO_strndup(ptr noundef nonnull %0, i64 noundef %7, ptr noundef nonnull @.str, i32 noundef 190) #6
  %9 = icmp eq ptr %8, null
  br i1 %9, label %45, label %10

10:                                               ; preds = %6
  %11 = load ptr, ptr %2, align 8, !tbaa !18
  %12 = getelementptr inbounds nuw i8, ptr %2, i64 8
  %13 = load ptr, ptr %12, align 8, !tbaa !23
  %14 = tail call ptr @NCONF_get_string(ptr noundef %13, ptr noundef nonnull %8, ptr noundef nonnull @.str.4) #6
  %15 = icmp eq ptr %14, null
  br i1 %15, label %.thread, label %16

16:                                               ; preds = %10
  %17 = tail call ptr @NCONF_get_string(ptr noundef %13, ptr noundef nonnull %8, ptr noundef nonnull @.str.5) #6
  %18 = icmp eq ptr %17, null
  br i1 %18, label %.thread, label %ctlog_new_from_conf.exit

.thread:                                          ; preds = %16, %10
  %.sink20 = phi i32 [ 147, %10 ], [ 153, %16 ]
  %.sink = phi i32 [ 111, %10 ], [ 112, %16 ]
  tail call void @ERR_new() #6
  tail call void @ERR_set_debug(ptr noundef nonnull @.str, i32 noundef %.sink20, ptr noundef nonnull @__func__.ctlog_new_from_conf) #6
  tail call void (i32, i32, ptr, ...) @ERR_set_error(i32 noundef 50, i32 noundef %.sink, ptr noundef null) #6
  tail call void @CRYPTO_free(ptr noundef nonnull %8, ptr noundef nonnull @.str, i32 noundef 195) #6
  br label %26

ctlog_new_from_conf.exit:                         ; preds = %16
  %19 = load ptr, ptr %11, align 8, !tbaa !3
  %20 = getelementptr inbounds nuw i8, ptr %11, i64 8
  %21 = load ptr, ptr %20, align 8, !tbaa !11
  %22 = call i32 @CTLOG_new_from_base64_ex(ptr noundef nonnull %4, ptr noundef nonnull %17, ptr noundef nonnull %14, ptr noundef %19, ptr noundef %21) #6
  call void @CRYPTO_free(ptr noundef nonnull %8, ptr noundef nonnull @.str, i32 noundef 195) #6
  %23 = icmp slt i32 %22, 0
  br i1 %23, label %45, label %24

24:                                               ; preds = %ctlog_new_from_conf.exit
  %25 = icmp eq i32 %22, 0
  br i1 %25, label %26, label %30

26:                                               ; preds = %.thread, %24
  %27 = getelementptr inbounds nuw i8, ptr %2, i64 16
  %28 = load i64, ptr %27, align 8, !tbaa !24
  %29 = add i64 %28, 1
  store i64 %29, ptr %27, align 8, !tbaa !24
  br label %45

30:                                               ; preds = %24
  %31 = load ptr, ptr %2, align 8, !tbaa !18
  %32 = getelementptr inbounds nuw i8, ptr %31, i64 16
  %33 = load ptr, ptr %32, align 8, !tbaa !12
  %34 = load ptr, ptr %4, align 8, !tbaa !25
  %35 = call i32 @OPENSSL_sk_push(ptr noundef %33, ptr noundef %34) #6
  %.not = icmp eq i32 %35, 0
  br i1 %.not, label %36, label %45

36:                                               ; preds = %30
  %37 = load ptr, ptr %4, align 8, !tbaa !25
  %.not.i = icmp eq ptr %37, null
  br i1 %.not.i, label %CTLOG_free.exit, label %38

38:                                               ; preds = %36
  %39 = getelementptr inbounds nuw i8, ptr %37, i64 16
  %40 = load ptr, ptr %39, align 8, !tbaa !13
  call void @CRYPTO_free(ptr noundef %40, ptr noundef nonnull @.str, i32 noundef 295) #6
  %41 = getelementptr inbounds nuw i8, ptr %37, i64 56
  %42 = load ptr, ptr %41, align 8, !tbaa !16
  call void @EVP_PKEY_free(ptr noundef %42) #6
  %43 = getelementptr inbounds nuw i8, ptr %37, i64 8
  %44 = load ptr, ptr %43, align 8, !tbaa !17
  call void @CRYPTO_free(ptr noundef %44, ptr noundef nonnull @.str, i32 noundef 297) #6
  call void @CRYPTO_free(ptr noundef nonnull %37, ptr noundef nonnull @.str, i32 noundef 298) #6
  br label %CTLOG_free.exit

CTLOG_free.exit:                                  ; preds = %36, %38
  call void @ERR_new() #6
  call void @ERR_set_debug(ptr noundef nonnull @.str, i32 noundef 209, ptr noundef nonnull @__func__.ctlog_store_load_log) #6
  call void (i32, i32, ptr, ...) @ERR_set_error(i32 noundef 50, i32 noundef 524303, ptr noundef null) #6
  br label %45

45:                                               ; preds = %30, %ctlog_new_from_conf.exit, %6, %3, %CTLOG_free.exit, %26
  %.0 = phi i32 [ 1, %26 ], [ -1, %CTLOG_free.exit ], [ 1, %3 ], [ -1, %6 ], [ %22, %ctlog_new_from_conf.exit ], [ 1, %30 ]
  call void @llvm.lifetime.end.p0(i64 8, ptr nonnull %4) #6
  ret i32 %.0
}